target datalayout = "e-m:e-p270:32:32-p271:32:32-p272:64:64-i64:64-i128:128-f80:128-n8:16:32:64-S128"
target triple = "x86_64-pc-linux-gnu"

%struct.pm_constant_pool_t = type { ptr, ptr, i32, i32 }

; Function Attrs: nounwind sspstrong uwtable
define internal i32 @next_power_of_two(i32 noundef %0) #0 {
  %2 = alloca i32, align 4
  %3 = alloca i32, align 4
  store i32 %0, ptr %3, align 4, !tbaa !18
  %4 = load i32, ptr %3, align 4, !tbaa !18
  %5 = icmp eq i32 %4, 0
  br i1 %5, label %6, label %7

6:                                                ; preds = %1
  store i32 1, ptr %2, align 4
  br label %33

7:                                                ; preds = %1
  %8 = load i32, ptr %3, align 4, !tbaa !18
  %9 = add i32 %8, -1
  store i32 %9, ptr %3, align 4, !tbaa !18
  %10 = load i32, ptr %3, align 4, !tbaa !18
  %11 = lshr i32 %10, 1
  %12 = load i32, ptr %3, align 4, !tbaa !18
  %13 = or i32 %12, %11
  store i32 %13, ptr %3, align 4, !tbaa !18
  %14 = load i32, ptr %3, align 4, !tbaa !18
  %15 = lshr i32 %14, 2
  %16 = load i32, ptr %3, align 4, !tbaa !18
  %17 = or i32 %16, %15
  store i32 %17, ptr %3, align 4, !tbaa !18
  %18 = load i32, ptr %3, align 4, !tbaa !18
  %19 = lshr i32 %18, 4
  %20 = load i32, ptr %3, align 4, !tbaa !18
  %21 = or i32 %20, %19
  store i32 %21, ptr %3, align 4, !tbaa !18
  %22 = load i32, ptr %3, align 4, !tbaa !18
  %23 = lshr i32 %22, 8
  %24 = load i32, ptr %3, align 4, !tbaa !18
  %25 = or i32 %24, %23
  store i32 %25, ptr %3, align 4, !tbaa !18
  %26 = load i32, ptr %3, align 4, !tbaa !18
  %27 = lshr i32 %26, 16
  %28 = load i32, ptr %3, align 4, !tbaa !18
  %29 = or i32 %28, %27
  store i32 %29, ptr %3, align 4, !tbaa !18
  %30 = load i32, ptr %3, align 4, !tbaa !18
  %31 = add i32 %30, 1
  store i32 %31, ptr %3, align 4, !tbaa !18
  %32 = load i32, ptr %3, align 4, !tbaa !18
  store i32 %32, ptr %2, align 4
  br label %33

33:                                               ; preds = %7, %6
  %34 = load i32, ptr %2, align 4
  ret i32 %34
}

; Function Attrs: nounwind sspstrong uwtable
define hidden zeroext i1 @pm_constant_pool_init(ptr noundef %0, i32 noundef %1) #0 {
  %3 = alloca i1, align 1
  %4 = alloca ptr, align 8
  %5 = alloca i32, align 4
  %6 = alloca i32, align 4
  %7 = alloca i32, align 4
  %8 = alloca i64, align 8
  %9 = alloca ptr, align 8
  store ptr %0, ptr %4, align 8, !tbaa !7
  store i32 %1, ptr %5, align 4, !tbaa !18
  call void @llvm.lifetime.start.p0(i64 4, ptr %6) #14
  store i32 -1, ptr %6, align 4, !tbaa !18
  %10 = load i32, ptr %5, align 4, !tbaa !18
  %11 = icmp uge i32 %10, -2147483648
  br i1 %11, label %12, label %13

12:                                               ; preds = %2
  store i1 false, ptr %3, align 1
  store i32 1, ptr %7, align 4
  br label %39

13:                                               ; preds = %2
  %14 = load i32, ptr %5, align 4, !tbaa !18
  %15 = call i32 @next_power_of_two(i32 noundef %14)
  store i32 %15, ptr %5, align 4, !tbaa !18
  call void @llvm.lifetime.start.p0(i64 8, ptr %8) #14
  store i64 24, ptr %8, align 8, !tbaa !17
  call void @llvm.lifetime.start.p0(i64 8, ptr %9) #14
  %16 = load i32, ptr %5, align 4, !tbaa !18
  %17 = zext i32 %16 to i64
  %18 = call noalias ptr @calloc(i64 noundef %17, i64 noundef 24) #11
  store ptr %18, ptr %9, align 8, !tbaa !7
  %19 = load ptr, ptr %9, align 8, !tbaa !7
  %20 = icmp eq ptr %19, null
  br i1 %20, label %21, label %22

21:                                               ; preds = %13
  store i1 false, ptr %3, align 1
  store i32 1, ptr %7, align 4
  br label %38

22:                                               ; preds = %13
  %23 = load ptr, ptr %9, align 8, !tbaa !7
  %24 = load ptr, ptr %4, align 8, !tbaa !7
  %25 = getelementptr inbounds nuw %struct.pm_constant_pool_t, ptr %24, i32 0, i32 0
  store ptr %23, ptr %25, align 8, !tbaa !22
  %26 = load ptr, ptr %9, align 8, !tbaa !7
  %27 = load i32, ptr %5, align 4, !tbaa !18
  %28 = zext i32 %27 to i64
  %29 = mul i64 %28, 8
  %30 = getelementptr i8, ptr %26, i64 %29
  %31 = load ptr, ptr %4, align 8, !tbaa !7
  %32 = getelementptr inbounds nuw %struct.pm_constant_pool_t, ptr %31, i32 0, i32 1
  store ptr %30, ptr %32, align 8, !tbaa !24
  %33 = load ptr, ptr %4, align 8, !tbaa !7
  %34 = getelementptr inbounds nuw %struct.pm_constant_pool_t, ptr %33, i32 0, i32 2
  store i32 0, ptr %34, align 8, !tbaa !25
  %35 = load i32, ptr %5, align 4, !tbaa !18
  %36 = load ptr, ptr %4, align 8, !tbaa !7
  %37 = getelementptr inbounds nuw %struct.pm_constant_pool_t, ptr %36, i32 0, i32 3
  store i32 %35, ptr %37, align 4, !tbaa !26
  store i1 true, ptr %3, align 1
  store i32 1, ptr %7, align 4
  br label %38

38:                                               ; preds = %22, %21
  call void @llvm.lifetime.end.p0(i64 8, ptr %9) #14
  call void @llvm.lifetime.end.p0(i64 8, ptr %8) #14
  br label %39

39:                                               ; preds = %38, %12
  call void @llvm.lifetime.end.p0(i64 4, ptr %6) #14
  %40 = load i1, ptr %3, align 1
  ret i1 %40
}