; Function Attrs: mustprogress nofree nounwind sspstrong willreturn memory(argmem: write, inaccessiblemem: readwrite) uwtable
define hidden noundef zeroext i1 @pm_constant_pool_init(ptr noundef writeonly captures(none) %0, i32 noundef %1) local_unnamed_addr #9 {
  %3 = icmp slt i32 %1, 0
  br i1 %3, label %27, label %4

4:                                                ; preds = %2
  %5 = icmp eq i32 %1, 0
  br i1 %5, label %next_power_of_two.exit, label %6

6:                                                ; preds = %4
  %7 = add nsw i32 %1, -1
  %8 = lshr i32 %7, 1
  %9 = or i32 %8, %7
  %10 = lshr i32 %9, 2
  %11 = or i32 %10, %9
  %12 = lshr i32 %11, 4
  %13 = or i32 %12, %11
  %14 = lshr i32 %13, 8
  %15 = or i32 %14, %13
  %16 = lshr i32 %15, 16
  %17 = or i32 %16, %15
  %18 = add nuw i32 %17, 1
  br label %next_power_of_two.exit

next_power_of_two.exit:                           ; preds = %4, %6
  %.0.i = phi i32 [ %18, %6 ], [ 1, %4 ]
  %19 = zext i32 %.0.i to i64
  %20 = tail call noalias ptr @calloc(i64 noundef %19, i64 noundef 24) #17
  %.not = icmp eq ptr %20, null
  br i1 %.not, label %27, label %21

21:                                               ; preds = %next_power_of_two.exit
  store ptr %20, ptr %0, align 8, !tbaa !20
  %22 = shl nuw nsw i64 %19, 3
  %23 = getelementptr i8, ptr %20, i64 %22
  %24 = getelementptr inbounds nuw i8, ptr %0, i64 8
  store ptr %23, ptr %24, align 8, !tbaa !22
  %25 = getelementptr inbounds nuw i8, ptr %0, i64 16
  store i32 0, ptr %25, align 8, !tbaa !23
  %26 = getelementptr inbounds nuw i8, ptr %0, i64 20
  store i32 %.0.i, ptr %26, align 4, !tbaa !24
  br label %27

27:                                               ; preds = %21, %next_power_of_two.exit, %2
  %.0 = phi i1 [ false, %2 ], [ false, %next_power_of_two.exit ], [ true, %21 ]
  ret i1 %.0
}